target datalayout = "e-m:e-p270:32:32-p271:32:32-p272:64:64-i64:64-i128:128-f80:128-n8:16:32:64-S128"
target triple = "x86_64-pc-linux-gnu"

%"class.glslang::HlslGrammar" = type { %"class.glslang::HlslTokenStream.base", ptr, ptr, i8, ptr }
%"class.glslang::HlslTokenStream.base" = type <{ ptr, %"struct.glslang::HlslToken", ptr, %"class.glslang::TVector", %"class.glslang::TVector.0", %"class.glslang::TVector.4", [2 x %"struct.glslang::HlslToken"], i32, [4 x i8], [2 x %"struct.glslang::HlslToken"], i32 }>
%"struct.glslang::HlslToken" = type { %"struct.glslang::TSourceLoc", i32, %union.anon }
%"struct.glslang::TSourceLoc" = type { ptr, i32, i32, i32 }
%union.anon = type { ptr }
%"class.glslang::TVector" = type { %"class.std::vector" }
%"class.std::vector" = type { %"struct.std::_Vector_base" }
%"struct.std::_Vector_base" = type { %"struct.std::_Vector_base<const glslang::TVector<glslang::HlslToken> *, glslang::pool_allocator<const glslang::TVector<glslang::HlslToken> *>>::_Vector_impl" }
%"struct.std::_Vector_base<const glslang::TVector<glslang::HlslToken> *, glslang::pool_allocator<const glslang::TVector<glslang::HlslToken> *>>::_Vector_impl" = type { %"class.glslang::pool_allocator", %"struct.std::_Vector_base<const glslang::TVector<glslang::HlslToken> *, glslang::pool_allocator<const glslang::TVector<glslang::HlslToken> *>>::_Vector_impl_data" }
%"class.glslang::pool_allocator" = type { ptr }
%"struct.std::_Vector_base<const glslang::TVector<glslang::HlslToken> *, glslang::pool_allocator<const glslang::TVector<glslang::HlslToken> *>>::_Vector_impl_data" = type { ptr, ptr, ptr }
%"class.glslang::TVector.0" = type { %"class.std::vector.1" }
%"class.std::vector.1" = type { %"struct.std::_Vector_base.2" }
%"struct.std::_Vector_base.2" = type { %"struct.std::_Vector_base<int, glslang::pool_allocator<int>>::_Vector_impl" }
%"struct.std::_Vector_base<int, glslang::pool_allocator<int>>::_Vector_impl" = type { %"class.glslang::pool_allocator.3", %"struct.std::_Vector_base<int, glslang::pool_allocator<int>>::_Vector_impl_data" }
%"class.glslang::pool_allocator.3" = type { ptr }
%"struct.std::_Vector_base<int, glslang::pool_allocator<int>>::_Vector_impl_data" = type { ptr, ptr, ptr }
%"class.glslang::TVector.4" = type { %"class.std::vector.5" }
%"class.std::vector.5" = type { %"struct.std::_Vector_base.6" }
%"struct.std::_Vector_base.6" = type { %"struct.std::_Vector_base<glslang::HlslToken, glslang::pool_allocator<glslang::HlslToken>>::_Vector_impl" }
%"struct.std::_Vector_base<glslang::HlslToken, glslang::pool_allocator<glslang::HlslToken>>::_Vector_impl" = type { %"class.glslang::pool_allocator.7", %"struct.std::_Vector_base<glslang::HlslToken, glslang::pool_allocator<glslang::HlslToken>>::_Vector_impl_data" }
%"class.glslang::pool_allocator.7" = type { ptr }
%"struct.std::_Vector_base<glslang::HlslToken, glslang::pool_allocator<glslang::HlslToken>>::_Vector_impl_data" = type { ptr, ptr, ptr }
%"class.glslang::HlslTokenStream" = type <{ ptr, %"struct.glslang::HlslToken", ptr, %"class.glslang::TVector", %"class.glslang::TVector.0", %"class.glslang::TVector.4", [2 x %"struct.glslang::HlslToken"], i32, [4 x i8], [2 x %"struct.glslang::HlslToken"], i32, [4 x i8] }>

@.str = private unnamed_addr constant [9 x i8] c"Expected\00", align 1
@.str.1 = private unnamed_addr constant [1 x i8] zeroinitializer, align 1
@.str.6 = private unnamed_addr constant [7 x i8] c"assign\00", align 1
@.str.36 = private unnamed_addr constant [12 x i8] c"initializer\00", align 1
@.str.76 = private unnamed_addr constant [22 x i8] c"assignment expression\00", align 1
@.str.79 = private unnamed_addr constant [28 x i8] c"could not create assignment\00", align 1

; Function Attrs: mustprogress nounwind uwtable
define void @_ZN7glslang11HlslGrammar8expectedEPKc(ptr noundef nonnull align 8 dereferenceable(360) %0, ptr noundef %1) #0 align 2 {
  %3 = alloca ptr, align 8
  %4 = alloca ptr, align 8
  store ptr %0, ptr %3, align 8
  store ptr %1, ptr %4, align 8
  %5 = load ptr, ptr %3, align 8
  %6 = getelementptr inbounds %"class.glslang::HlslGrammar", ptr %5, i32 0, i32 1
  %7 = load ptr, ptr %6, align 8
  %8 = getelementptr inbounds %"class.glslang::HlslTokenStream", ptr %5, i32 0, i32 1
  %9 = getelementptr inbounds %"struct.glslang::HlslToken", ptr %8, i32 0, i32 0
  %10 = load ptr, ptr %4, align 8
  %11 = load ptr, ptr %7, align 8
  %12 = getelementptr inbounds ptr, ptr %11, i64 43
  %13 = load ptr, ptr %12, align 8
  call void (ptr, ptr, ptr, ptr, ptr, ...) %13(ptr noundef nonnull align 8 dereferenceable(1280) %7, ptr noundef nonnull align 8 dereferenceable(24) %9, ptr noundef @.str, ptr noundef %10, ptr noundef @.str.1)
  ret void
}

; Function Attrs: mustprogress nounwind uwtable
define noundef zeroext i1 @_ZN7glslang11HlslGrammar26acceptAssignmentExpressionERPNS_12TIntermTypedE(ptr noundef nonnull align 8 dereferenceable(360) %0, ptr noundef nonnull align 8 dereferenceable(8) %1) #0 align 2 {
  %3 = alloca i1, align 1
  %4 = alloca ptr, align 8
  %5 = alloca ptr, align 8
  %6 = alloca i32, align 4
  %7 = alloca %"struct.glslang::TSourceLoc", align 8
  %8 = alloca ptr, align 8
  store ptr %0, ptr %4, align 8
  store ptr %1, ptr %5, align 8
  %9 = load ptr, ptr %4, align 8
  %10 = call noundef zeroext i1 @_ZNK7glslang15HlslTokenStream14peekTokenClassENS_15EHlslTokenClassE(ptr noundef nonnull align 8 dereferenceable(324) %9, i32 noundef 359)
  br i1 %10, label %11, label %16

11:                                               ; preds = %2
  %12 = load ptr, ptr %5, align 8
  %13 = call noundef zeroext i1 @_ZN7glslang11HlslGrammar17acceptInitializerERPNS_12TIntermTypedE(ptr noundef nonnull align 8 dereferenceable(360) %9, ptr noundef nonnull align 8 dereferenceable(8) %12)
  br i1 %13, label %14, label %15

14:                                               ; preds = %11
  store i1 true, ptr %3, align 1
  br label %58

15:                                               ; preds = %11
  call void @_ZN7glslang11HlslGrammar8expectedEPKc(ptr noundef nonnull align 8 dereferenceable(360) %9, ptr noundef @.str.36)
  store i1 false, ptr %3, align 1
  br label %58

16:                                               ; preds = %2
  %17 = load ptr, ptr %5, align 8
  %18 = call noundef zeroext i1 @_ZN7glslang11HlslGrammar27acceptConditionalExpressionERPNS_12TIntermTypedE(ptr noundef nonnull align 8 dereferenceable(360) %9, ptr noundef nonnull align 8 dereferenceable(8) %17)
  br i1 %18, label %20, label %19

19:                                               ; preds = %16
  store i1 false, ptr %3, align 1
  br label %58

20:                                               ; preds = %16
  %21 = call noundef i32 @_ZNK7glslang15HlslTokenStream4peekEv(ptr noundef nonnull align 8 dereferenceable(324) %9)
  %22 = call noundef i32 @_ZN7glslang9HlslOpMap10assignmentENS_15EHlslTokenClassE(i32 noundef %21)
  store i32 %22, ptr %6, align 4
  %23 = load i32, ptr %6, align 4
  %24 = icmp eq i32 %23, 0
  br i1 %24, label %25, label %26

25:                                               ; preds = %20
  store i1 true, ptr %3, align 1
  br label %58

26:                                               ; preds = %20
  %27 = getelementptr inbounds %"class.glslang::HlslTokenStream", ptr %9, i32 0, i32 1
  %28 = getelementptr inbounds %"struct.glslang::HlslToken", ptr %27, i32 0, i32 0
  call void @llvm.memcpy.p0.p0.i64(ptr align 8 %7, ptr align 8 %28, i64 24, i1 false)
  call void @_ZN7glslang15HlslTokenStream12advanceTokenEv(ptr noundef nonnull align 8 dereferenceable(324) %9)
  store ptr null, ptr %8, align 8
  %29 = call noundef zeroext i1 @_ZN7glslang11HlslGrammar26acceptAssignmentExpressionERPNS_12TIntermTypedE(ptr noundef nonnull align 8 dereferenceable(360) %9, ptr noundef nonnull align 8 dereferenceable(8) %8)
  br i1 %29, label %31, label %30

30:                                               ; preds = %26
  call void @_ZN7glslang11HlslGrammar8expectedEPKc(ptr noundef nonnull align 8 dereferenceable(360) %9, ptr noundef @.str.76)
  store i1 false, ptr %3, align 1
  br label %58

31:                                               ; preds = %26
  %32 = getelementptr inbounds %"class.glslang::HlslGrammar", ptr %9, i32 0, i32 1
  %33 = load ptr, ptr %32, align 8
  %34 = load i32, ptr %6, align 4
  %35 = load ptr, ptr %5, align 8
  %36 = load ptr, ptr %35, align 8
  %37 = load ptr, ptr %8, align 8
  %38 = call noundef ptr @_ZN7glslang16HlslParseContext12handleAssignERKNS_10TSourceLocENS_9TOperatorEPNS_12TIntermTypedES6_(ptr noundef nonnull align 8 dereferenceable(2489) %33, ptr noundef nonnull align 8 dereferenceable(24) %7, i32 noundef %34, ptr noundef %36, ptr noundef %37)
  %39 = load ptr, ptr %5, align 8
  store ptr %38, ptr %39, align 8
  %40 = getelementptr inbounds %"class.glslang::HlslGrammar", ptr %9, i32 0, i32 1
  %41 = load ptr, ptr %40, align 8
  %42 = load ptr, ptr %5, align 8
  %43 = call noundef ptr @_ZN7glslang16HlslParseContext12handleLvalueERKNS_10TSourceLocEPKcRPNS_12TIntermTypedE(ptr noundef nonnull align 8 dereferenceable(2489) %41, ptr noundef nonnull align 8 dereferenceable(24) %7, ptr noundef @.str.6, ptr noundef nonnull align 8 dereferenceable(8) %42)
  %44 = load ptr, ptr %5, align 8
  store ptr %43, ptr %44, align 8
  %45 = load ptr, ptr %5, align 8
  %46 = load ptr, ptr %45, align 8
  %47 = icmp eq ptr %46, null
  br i1 %47, label %48, label %54

48:                                               ; preds = %31
  %49 = getelementptr inbounds %"class.glslang::HlslGrammar", ptr %9, i32 0, i32 1
  %50 = load ptr, ptr %49, align 8
  %51 = load ptr, ptr %50, align 8
  %52 = getelementptr inbounds ptr, ptr %51, i64 43
  %53 = load ptr, ptr %52, align 8
  call void (ptr, ptr, ptr, ptr, ptr, ...) %53(ptr noundef nonnull align 8 dereferenceable(1280) %50, ptr noundef nonnull align 8 dereferenceable(24) %7, ptr noundef @.str.79, ptr noundef @.str.1, ptr noundef @.str.1)
  store i1 false, ptr %3, align 1
  br label %58

54:                                               ; preds = %31
  %55 = call noundef zeroext i1 @_ZNK7glslang15HlslTokenStream14peekTokenClassENS_15EHlslTokenClassE(ptr noundef nonnull align 8 dereferenceable(324) %9, i32 noundef 362)
  br i1 %55, label %57, label %56

56:                                               ; preds = %54
  store i1 true, ptr %3, align 1
  br label %58

57:                                               ; preds = %54
  store i1 true, ptr %3, align 1
  br label %58

58:                                               ; preds = %57, %56, %48, %30, %25, %19, %15, %14
  %59 = load i1, ptr %3, align 1
  ret i1 %59
}