; Function Attrs: mustprogress nounwind uwtable
define noundef zeroext i1 @_ZN7glslang11HlslGrammar26acceptAssignmentExpressionERPNS_12TIntermTypedE(ptr noundef nonnull align 8 dereferenceable(360) %0, ptr noundef nonnull align 8 dereferenceable(8) %1) local_unnamed_addr #0 align 2 {
  %3 = alloca %"struct.glslang::TSourceLoc", align 8
  %4 = alloca ptr, align 8
  %5 = tail call noundef zeroext i1 @_ZNK7glslang15HlslTokenStream14peekTokenClassENS_15EHlslTokenClassE(ptr noundef nonnull align 8 dereferenceable(324) %0, i32 noundef 359) #16
  br i1 %5, label %6, label %15

6:                                                ; preds = %2
  %7 = tail call noundef zeroext i1 @_ZN7glslang11HlslGrammar17acceptInitializerERPNS_12TIntermTypedE(ptr noundef nonnull align 8 dereferenceable(360) %0, ptr noundef nonnull align 8 dereferenceable(8) %1)
  br i1 %7, label %44, label %8

8:                                                ; preds = %6
  %9 = getelementptr inbounds i8, ptr %0, i64 328
  %10 = load ptr, ptr %9, align 8
  %11 = getelementptr inbounds i8, ptr %0, i64 8
  %12 = load ptr, ptr %10, align 8
  %13 = getelementptr inbounds i8, ptr %12, i64 344
  %14 = load ptr, ptr %13, align 8
  tail call void (ptr, ptr, ptr, ptr, ptr, ...) %14(ptr noundef nonnull align 8 dereferenceable(1280) %10, ptr noundef nonnull align 8 dereferenceable(24) %11, ptr noundef nonnull @.str, ptr noundef nonnull @.str.36, ptr noundef nonnull @.str.1) #16
  br label %44

15:                                               ; preds = %2
  %16 = tail call noundef zeroext i1 @_ZN7glslang11HlslGrammar27acceptConditionalExpressionERPNS_12TIntermTypedE(ptr noundef nonnull align 8 dereferenceable(360) %0, ptr noundef nonnull align 8 dereferenceable(8) %1)
  br i1 %16, label %17, label %44

17:                                               ; preds = %15
  %18 = tail call noundef i32 @_ZNK7glslang15HlslTokenStream4peekEv(ptr noundef nonnull align 8 dereferenceable(324) %0) #16
  %19 = tail call noundef i32 @_ZN7glslang9HlslOpMap10assignmentENS_15EHlslTokenClassE(i32 noundef %18) #16
  %20 = icmp eq i32 %19, 0
  br i1 %20, label %44, label %21

21:                                               ; preds = %17
  %22 = getelementptr inbounds i8, ptr %0, i64 8
  call void @llvm.memcpy.p0.p0.i64(ptr noundef nonnull align 8 dereferenceable(24) %3, ptr noundef nonnull align 8 dereferenceable(24) %22, i64 24, i1 false)
  tail call void @_ZN7glslang15HlslTokenStream12advanceTokenEv(ptr noundef nonnull align 8 dereferenceable(324) %0) #16
  store ptr null, ptr %4, align 8
  %23 = call noundef zeroext i1 @_ZN7glslang11HlslGrammar26acceptAssignmentExpressionERPNS_12TIntermTypedE(ptr noundef nonnull align 8 dereferenceable(360) %0, ptr noundef nonnull align 8 dereferenceable(8) %4)
  %24 = getelementptr inbounds i8, ptr %0, i64 328
  %25 = load ptr, ptr %24, align 8
  br i1 %23, label %30, label %26

26:                                               ; preds = %21
  %27 = load ptr, ptr %25, align 8
  %28 = getelementptr inbounds i8, ptr %27, i64 344
  %29 = load ptr, ptr %28, align 8
  call void (ptr, ptr, ptr, ptr, ptr, ...) %29(ptr noundef nonnull align 8 dereferenceable(1280) %25, ptr noundef nonnull align 8 dereferenceable(24) %22, ptr noundef nonnull @.str, ptr noundef nonnull @.str.76, ptr noundef nonnull @.str.1) #16
  br label %44

30:                                               ; preds = %21
  %31 = load ptr, ptr %1, align 8
  %32 = load ptr, ptr %4, align 8
  %33 = call noundef ptr @_ZN7glslang16HlslParseContext12handleAssignERKNS_10TSourceLocENS_9TOperatorEPNS_12TIntermTypedES6_(ptr noundef nonnull align 8 dereferenceable(2489) %25, ptr noundef nonnull align 8 dereferenceable(24) %3, i32 noundef %19, ptr noundef %31, ptr noundef %32) #16
  store ptr %33, ptr %1, align 8
  %34 = load ptr, ptr %24, align 8
  %35 = call noundef ptr @_ZN7glslang16HlslParseContext12handleLvalueERKNS_10TSourceLocEPKcRPNS_12TIntermTypedE(ptr noundef nonnull align 8 dereferenceable(2489) %34, ptr noundef nonnull align 8 dereferenceable(24) %3, ptr noundef nonnull @.str.6, ptr noundef nonnull align 8 dereferenceable(8) %1) #16
  store ptr %35, ptr %1, align 8
  %36 = icmp eq ptr %35, null
  br i1 %36, label %37, label %42

37:                                               ; preds = %30
  %38 = load ptr, ptr %24, align 8
  %39 = load ptr, ptr %38, align 8
  %40 = getelementptr inbounds i8, ptr %39, i64 344
  %41 = load ptr, ptr %40, align 8
  call void (ptr, ptr, ptr, ptr, ptr, ...) %41(ptr noundef nonnull align 8 dereferenceable(1280) %38, ptr noundef nonnull align 8 dereferenceable(24) %3, ptr noundef nonnull @.str.79, ptr noundef nonnull @.str.1, ptr noundef nonnull @.str.1) #16
  br label %44

42:                                               ; preds = %30
  %43 = call noundef zeroext i1 @_ZNK7glslang15HlslTokenStream14peekTokenClassENS_15EHlslTokenClassE(ptr noundef nonnull align 8 dereferenceable(324) %0, i32 noundef 362) #16
  br label %44

44:                                               ; preds = %42, %17, %15, %6, %37, %26, %8
  %.0 = phi i1 [ false, %8 ], [ false, %37 ], [ false, %26 ], [ true, %6 ], [ false, %15 ], [ true, %17 ], [ true, %42 ]
  ret i1 %.0
}